cnumpy.core.multiarray
_reconstruct
p1
(cnumpy
ndarray
p2
(I0
tS'b'
tRp3
(I1
(I637
I1
tcnumpy
dtype
p4
(S'O8'
I0
I1
tRp5
(I3
S'|'
NNNI-1
I-1
I63
tbI01
(lp6
S'Atripla'
p7
ag7
ag7
ag7
ag7
ag7
ag7
ag7
ag7
ag7
ag7
ag7
ag7
ag7
ag7
ag7
ag7
ag7
ag7
ag7
ag7
ag7
ag7
ag7
ag7
ag7
ag7
ag7
ag7
ag7
ag7
ag7
ag7
ag7
ag7
ag7
ag7
ag7
ag7
ag7
ag7
ag7
ag7
ag7
ag7
ag7
ag7
ag7
ag7
ag7
ag7
ag7
ag7
ag7
ag7
ag7
ag7
ag7
ag7
ag7
ag7
ag7
ag7
ag7
ag7
ag7
ag7
ag7
ag7
ag7
ag7
ag7
ag7
ag7
ag7
ag7
ag7
ag7
ag7
ag7
ag7
ag7
ag7
ag7
ag7
ag7
ag7
ag7
ag7
ag7
ag7
ag7
ag7
ag7
ag7
ag7
ag7
ag7
ag7
ag7
ag7
ag7
ag7
ag7
ag7
ag7
ag7
ag7
ag7
ag7
ag7
ag7
ag7
ag7
ag7
ag7
ag7
ag7
ag7
ag7
ag7
ag7
ag7
ag7
ag7
ag7
aS'Epzicom'
p8
ag8
ag8
ag8
ag8
ag8
ag8
ag8
ag8
ag8
ag8
ag8
ag8
ag8
ag8
ag8
ag8
ag8
ag8
ag8
ag8
ag8
ag8
ag8
ag8
ag8
ag8
ag8
ag8
ag8
ag8
ag8
ag8
ag8
ag8
ag8
ag8
ag8
ag8
ag8
ag8
ag8
ag8
ag8
ag8
ag8
ag8
ag8
ag8
ag8
ag8
ag8
ag8
ag8
ag8
ag8
ag8
ag8
ag8
ag8
ag8
ag8
ag8
ag8
ag8
ag8
ag8
ag8
ag8
ag8
ag8
ag8
ag8
ag8
ag8
ag8
ag8
ag8
ag8
ag8
ag8
ag8
ag8
ag8
ag8
ag8
ag8
ag8
ag8
ag8
ag8
ag8
ag8
ag8
ag8
ag8
ag8
ag8
ag8
ag8
ag8
ag8
ag8
ag8
ag8
ag8
ag8
ag8
ag8
ag8
ag8
ag8
ag8
ag8
ag8
ag8
ag8
ag8
ag8
ag8
ag8
ag8
ag8
ag8
ag8
ag8
ag8
ag8
ag8
ag8
ag8
ag8
ag8
aS'Prezista'
p9
ag9
ag9
ag9
ag9
ag9
ag9
ag9
ag9
ag9
ag9
ag9
ag9
ag9
ag9
ag9
ag9
ag9
ag9
ag9
ag9
ag9
ag9
ag9
ag9
ag9
ag9
ag9
ag9
ag9
ag9
ag9
ag9
ag9
ag9
ag9
ag9
ag9
ag9
ag9
ag9
ag9
ag9
ag9
ag9
ag9
ag9
ag9
ag9
ag9
ag9
ag9
ag9
ag9
ag9
ag9
ag9
ag9
ag9
ag9
ag9
ag9
ag9
ag9
ag9
ag9
ag9
ag9
ag9
ag9
ag9
ag9
ag9
ag9
ag9
ag9
ag9
ag9
ag9
ag9
ag9
ag9
ag9
ag9
ag9
ag9
ag9
ag9
ag9
ag9
ag9
ag9
ag9
ag9
ag9
ag9
ag9
ag9
ag9
ag9
ag9
ag9
ag9
ag9
ag9
ag9
ag9
ag9
ag9
ag9
ag9
ag9
ag9
ag9
ag9
ag9
ag9
ag9
ag9
ag9
aS'Truvada'
p10
ag10
ag10
ag10
ag10
ag10
ag10
ag10
ag10
ag10
ag10
ag10
ag10
ag10
ag10
ag10
ag10
ag10
ag10
ag10
ag10
ag10
ag10
ag10
ag10
ag10
ag10
ag10
ag10
ag10
ag10
ag10
ag10
ag10
ag10
ag10
ag10
ag10
ag10
ag10
ag10
ag10
ag10
ag10
ag10
ag10
ag10
ag10
ag10
ag10
ag10
ag10
ag10
ag10
ag10
ag10
ag10
ag10
ag10
ag10
ag10
ag10
ag10
ag10
ag10
ag10
ag10
ag10
ag10
ag10
ag10
ag10
ag10
ag10
ag10
ag10
ag10
ag10
ag10
ag10
ag10
ag10
ag10
ag10
ag10
ag10
ag10
ag10
ag10
ag10
ag10
ag10
ag10
ag10
ag10
ag10
ag10
ag10
ag10
ag10
ag10
ag10
ag10
ag10
ag10
ag10
ag10
ag10
ag10
ag10
ag10
ag10
ag10
ag10
ag10
ag10
ag10
ag10
ag10
ag10
ag10
ag10
ag10
ag10
ag10
ag10
aS'Tivicay'
p11
ag11
ag11
ag11
ag11
ag11
ag11
ag11
ag11
ag11
ag11
ag11
ag11
ag11
ag11
ag11
ag11
ag11
ag11
ag11
ag11
ag11
ag11
ag11
ag11
ag11
ag11
ag11
ag11
ag11
ag11
ag11
ag11
ag11
ag11
ag11
ag11
ag11
ag11
ag11
ag11
ag11
ag11
ag11
ag11
ag11
ag11
ag11
ag11
ag11
ag11
ag11
ag11
ag11
ag11
ag11
ag11
ag11
ag11
ag11
ag11
ag11
ag11
ag11
ag11
ag11
ag11
ag11
ag11
ag11
ag11
ag11
ag11
ag11
ag11
ag11
ag11
ag11
ag11
ag11
ag11
ag11
ag11
ag11
ag11
ag11
ag11
ag11
ag11
ag11
ag11
ag11
ag11
ag11
ag11
ag11
ag11
ag11
ag11
ag11
ag11
ag11
ag11
ag11
ag11
ag11
ag11
ag11
ag11
ag11
ag11
ag11
ag11
ag11
ag11
ag11
ag11
ag11
ag11
ag11
ag11
ag11
ag11
ag11
ag11
ag11
ag11
ag11
ag11
ag11
ag11
ag11
atb.